target datalayout = "e-m:e-p270:32:32-p271:32:32-p272:64:64-i64:64-i128:128-f80:128-n8:16:32:64-S128"
target triple = "x86_64-pc-linux-gnu"

%"class.absl::lts_20240722::Status" = type { i64 }
%"struct.(anonymous namespace)::inproc_transport" = type { %"class.grpc_core::FilterStackTransport", ptr, %struct.gpr_refcount, i8, %"class.grpc_core::ConnectivityStateTracker", ptr, ptr, ptr, i8, ptr, ptr }
%"class.grpc_core::FilterStackTransport" = type { %"class.grpc_core::Transport" }
%"class.grpc_core::Transport" = type { %"class.grpc_core::InternallyRefCounted.122" }
%"class.grpc_core::InternallyRefCounted.122" = type { %"class.grpc_core::Orphanable", %"class.grpc_core::RefCount" }
%"class.grpc_core::Orphanable" = type { ptr }
%"class.grpc_core::RefCount" = type { %"struct.std::atomic.12" }
%"struct.std::atomic.12" = type { %"struct.std::__atomic_base.13" }
%"struct.std::__atomic_base.13" = type { i64 }
%struct.gpr_refcount = type { i64 }
%"class.grpc_core::ConnectivityStateTracker" = type { ptr, %"struct.std::atomic.136", %"class.absl::lts_20240722::Status", %"class.absl::lts_20240722::flat_hash_set.137" }
%"struct.std::atomic.136" = type { i32 }
%"class.absl::lts_20240722::flat_hash_set.137" = type { %"class.absl::lts_20240722::container_internal::raw_hash_set.138" }
%"class.absl::lts_20240722::container_internal::raw_hash_set.138" = type { %"class.absl::lts_20240722::container_internal::CompressedTuple.139" }
%"class.absl::lts_20240722::container_internal::CompressedTuple.139" = type { %"struct.absl::lts_20240722::container_internal::internal_compressed_tuple::CompressedTupleImpl.140" }
%"struct.absl::lts_20240722::container_internal::internal_compressed_tuple::CompressedTupleImpl.140" = type { %"struct.absl::lts_20240722::container_internal::internal_compressed_tuple::Storage" }
%"struct.absl::lts_20240722::container_internal::internal_compressed_tuple::Storage" = type { %"class.absl::lts_20240722::container_internal::CommonFields" }
%"class.absl::lts_20240722::container_internal::CommonFields" = type { i64, i64, %"union.absl::lts_20240722::container_internal::HeapOrSoo" }
%"union.absl::lts_20240722::container_internal::HeapOrSoo" = type { %"struct.absl::lts_20240722::container_internal::HeapPtrs" }
%"struct.absl::lts_20240722::container_internal::HeapPtrs" = type { ptr, %"union.absl::lts_20240722::container_internal::MaybeInitializedPtr" }
%"union.absl::lts_20240722::container_internal::MaybeInitializedPtr" = type { ptr }
%"struct.(anonymous namespace)::shared_mu" = type { i64, %struct.gpr_refcount }

; Function Attrs: mustprogress nounwind uwtable
define linkonce_odr void @_ZN9grpc_core10OrphanableD2Ev(ptr noundef nonnull align 8 dereferenceable(8) %0) unnamed_addr #5 comdat align 2 {
  %2 = alloca ptr, align 8
  store ptr %0, ptr %2, align 8, !tbaa !331
  ret void
}

; Function Attrs: mustprogress nounwind uwtable
define internal void @_ZN12_GLOBAL__N_19shared_muD2Ev(ptr noundef nonnull align 8 dereferenceable(16) %0) unnamed_addr #5 align 2 personality ptr @__gxx_personality_v0 {
  %2 = alloca ptr, align 8
  store ptr %0, ptr %2, align 8, !tbaa !61
  %3 = load ptr, ptr %2, align 8
  %4 = getelementptr inbounds nuw %"struct.(anonymous namespace)::shared_mu", ptr %3, i32 0, i32 0
  invoke void @gpr_mu_destroy(ptr noundef %4)
          to label %5 unwind label %6

5:                                                ; preds = %1
  ret void

6:                                                ; preds = %1
  %7 = landingpad { ptr, i32 }
          catch ptr null
  %8 = extractvalue { ptr, i32 } %7, 0
  call void @__clang_call_terminate(ptr %8) #27
  unreachable
}

; Function Attrs: mustprogress nounwind uwtable
define internal void @_ZN12_GLOBAL__N_116inproc_transportD2Ev(ptr noundef nonnull align 8 dereferenceable(144) %0) unnamed_addr #5 align 2 personality ptr @__gxx_personality_v0 {
  %2 = alloca ptr, align 8
  store ptr %0, ptr %2, align 8, !tbaa !63
  %3 = load ptr, ptr %2, align 8
  %4 = getelementptr inbounds nuw %"struct.(anonymous namespace)::inproc_transport", ptr %3, i32 0, i32 1
  %5 = load ptr, ptr %4, align 8, !tbaa !155
  %6 = getelementptr inbounds nuw %"struct.(anonymous namespace)::shared_mu", ptr %5, i32 0, i32 1
  %7 = invoke i32 @gpr_unref(ptr noundef %6)
          to label %8 unwind label %18

8:                                                ; preds = %1
  %9 = icmp ne i32 %7, 0
  br i1 %9, label %10, label %16

10:                                               ; preds = %8
  %11 = getelementptr inbounds nuw %"struct.(anonymous namespace)::inproc_transport", ptr %3, i32 0, i32 1
  %12 = load ptr, ptr %11, align 8, !tbaa !155
  call void @_ZN12_GLOBAL__N_19shared_muD2Ev(ptr noundef nonnull align 8 dereferenceable(16) %12) #3
  %13 = getelementptr inbounds nuw %"struct.(anonymous namespace)::inproc_transport", ptr %3, i32 0, i32 1
  %14 = load ptr, ptr %13, align 8, !tbaa !155
  invoke void @gpr_free(ptr noundef %14)
          to label %15 unwind label %18

15:                                               ; preds = %10
  br label %16

16:                                               ; preds = %15, %8
  %17 = getelementptr inbounds nuw %"struct.(anonymous namespace)::inproc_transport", ptr %3, i32 0, i32 4
  call void @_ZN9grpc_core24ConnectivityStateTrackerD1Ev(ptr noundef nonnull align 8 dereferenceable(56) %17) #3
  call void @_ZN9grpc_core10OrphanableD2Ev(ptr noundef nonnull align 8 dereferenceable(16) %3) #3
  ret void

18:                                               ; preds = %10, %1
  %19 = landingpad { ptr, i32 }
          catch ptr null
  %20 = extractvalue { ptr, i32 } %19, 0
  call void @__clang_call_terminate(ptr %20) #27
  unreachable
}

; Function Attrs: mustprogress nounwind uwtable
define internal void @_ZN12_GLOBAL__N_116inproc_transportD0Ev(ptr noundef nonnull align 8 dereferenceable(144) %0) unnamed_addr #5 align 2 {
  %2 = alloca ptr, align 8
  store ptr %0, ptr %2, align 8, !tbaa !63
  %3 = load ptr, ptr %2, align 8
  call void @_ZN12_GLOBAL__N_116inproc_transportD2Ev(ptr noundef nonnull align 8 dereferenceable(144) %3) #3
  call void @_ZdlPvm(ptr noundef %3, i64 noundef 144) #29
  ret void
}